target datalayout = "e-m:e-p270:32:32-p271:32:32-p272:64:64-i64:64-i128:128-f80:128-n8:16:32:64-S128"
target triple = "x86_64-pc-linux-gnu"

@.str.189 = private unnamed_addr constant [42 x i8] c"'%s': not a number of seconds since epoch\00", align 1

; Function Attrs: nounwind uwtable
define internal i64 @parse_age(ptr noundef %0) #0 {
  %2 = alloca ptr, align 8
  %3 = alloca i64, align 8
  %4 = alloca ptr, align 8
  store ptr %0, ptr %2, align 8, !tbaa !39
  call void @llvm.lifetime.start.p0(i64 8, ptr %3) #12
  call void @llvm.lifetime.start.p0(i64 8, ptr %4) #12
  %5 = call ptr @__errno_location() #16
  store i32 0, ptr %5, align 4, !tbaa !9
  %6 = load ptr, ptr %2, align 8, !tbaa !39
  %7 = call i64 @strtoumax(ptr noundef %6, ptr noundef %4, i32 noundef 10) #12
  store i64 %7, ptr %3, align 8, !tbaa !34
  %8 = call ptr @__errno_location() #16
  %9 = load i32, ptr %8, align 4, !tbaa !9
  %10 = icmp ne i32 %9, 0
  br i1 %10, label %20, label %11

11:                                               ; preds = %1
  %12 = load ptr, ptr %4, align 8, !tbaa !39
  %13 = load i8, ptr %12, align 1, !tbaa !41
  %14 = sext i8 %13 to i32
  %15 = icmp ne i32 %14, 0
  br i1 %15, label %20, label %16

16:                                               ; preds = %11
  %17 = load ptr, ptr %4, align 8, !tbaa !39
  %18 = load ptr, ptr %2, align 8, !tbaa !39
  %19 = icmp eq ptr %17, %18
  br i1 %19, label %20, label %22

20:                                               ; preds = %16, %11, %1
  %21 = load ptr, ptr %2, align 8, !tbaa !39
  call void (ptr, ...) @die(ptr noundef @.str.189, ptr noundef %21) #13
  unreachable

22:                                               ; preds = %16
  %23 = load i64, ptr %3, align 8, !tbaa !34
  call void @llvm.lifetime.end.p0(i64 8, ptr %4) #12
  call void @llvm.lifetime.end.p0(i64 8, ptr %3) #12
  ret i64 %23
}