; Function Attrs: nounwind uwtable
define internal fastcc i64 @parse_age(ptr noundef %0) unnamed_addr #2 {
  %2 = alloca ptr, align 8
  call void @llvm.lifetime.start.p0(i64 8, ptr nonnull %2) #26
  %3 = tail call ptr @__errno_location() #29
  store i32 0, ptr %3, align 4, !tbaa !42
  %4 = call i64 @strtoumax(ptr noundef %0, ptr noundef nonnull %2, i32 noundef 10) #26
  %5 = load i32, ptr %3, align 4, !tbaa !42
  %.not = icmp eq i32 %5, 0
  br i1 %.not, label %6, label %10

6:                                                ; preds = %1
  %7 = load ptr, ptr %2, align 8, !tbaa !200
  %8 = load i8, ptr %7, align 1, !tbaa !28
  %.not3 = icmp ne i8 %8, 0
  %9 = icmp eq ptr %7, %0
  %or.cond = or i1 %9, %.not3
  br i1 %or.cond, label %10, label %11

10:                                               ; preds = %6, %1
  call void (ptr, ...) @die(ptr noundef nonnull @.str.189, ptr noundef %0) #28
  unreachable

11:                                               ; preds = %6
  call void @llvm.lifetime.end.p0(i64 8, ptr nonnull %2) #26
  ret i64 %4
}